target datalayout = "e-m:e-p270:32:32-p271:32:32-p272:64:64-i64:64-i128:128-f80:128-n8:16:32:64-S128"
target triple = "x86_64-pc-linux-gnu"

%struct.prov_siv_ctx_st = type { i32, i8, i64, i64, %struct.siv128_context, ptr, ptr, ptr, ptr }
%struct.siv128_context = type { %union.siv_block_u, %union.siv_block_u, ptr, ptr, ptr, i32, i32 }
%union.siv_block_u = type { [2 x i64] }
%struct.prov_cipher_hw_aes_siv_st = type { ptr, ptr, ptr, ptr, ptr, ptr }

@.str = private unnamed_addr constant [62 x i8] c"../openssl/providers/implementations/ciphers/cipher_aes_siv.c\00", align 1
@__func__.siv_init = private unnamed_addr constant [9 x i8] c"siv_init\00", align 1

; Function Attrs: nounwind uwtable
define internal i32 @siv_init(ptr noundef %0, ptr noundef %1, i64 noundef %2, ptr noundef %3, i64 noundef %4, ptr noundef %5, i32 noundef %6) #0 {
  %8 = alloca i32, align 4
  %9 = alloca ptr, align 8
  %10 = alloca ptr, align 8
  %11 = alloca i64, align 8
  %12 = alloca ptr, align 8
  %13 = alloca i64, align 8
  %14 = alloca ptr, align 8
  %15 = alloca i32, align 4
  %16 = alloca ptr, align 8
  %17 = alloca i32, align 4
  store ptr %0, ptr %9, align 8, !tbaa !3
  store ptr %1, ptr %10, align 8, !tbaa !23
  store i64 %2, ptr %11, align 8, !tbaa !25
  store ptr %3, ptr %12, align 8, !tbaa !23
  store i64 %4, ptr %13, align 8, !tbaa !25
  store ptr %5, ptr %14, align 8, !tbaa !26
  store i32 %6, ptr %15, align 4, !tbaa !38
  call void @llvm.lifetime.start.p0(i64 8, ptr %16) #4
  %18 = load ptr, ptr %9, align 8, !tbaa !3
  store ptr %18, ptr %16, align 8, !tbaa !7
  %19 = call i32 @ossl_prov_is_running()
  %20 = icmp ne i32 %19, 0
  br i1 %20, label %22, label %21

21:                                               ; preds = %7
  store i32 0, ptr %8, align 4
  store i32 1, ptr %17, align 4
  br label %59

22:                                               ; preds = %7
  %23 = load i32, ptr %15, align 4, !tbaa !38
  %24 = load ptr, ptr %16, align 8, !tbaa !7
  %25 = getelementptr inbounds nuw %struct.prov_siv_ctx_st, ptr %24, i32 0, i32 1
  %26 = trunc i32 %23 to i8
  %27 = load i8, ptr %25, align 4
  %28 = and i8 %26, 1
  %29 = and i8 %27, -2
  %30 = or i8 %29, %28
  store i8 %30, ptr %25, align 4
  %31 = load ptr, ptr %10, align 8, !tbaa !23
  %32 = icmp ne ptr %31, null
  br i1 %32, label %33, label %55

33:                                               ; preds = %22
  %34 = load i64, ptr %11, align 8, !tbaa !25
  %35 = load ptr, ptr %16, align 8, !tbaa !7
  %36 = getelementptr inbounds nuw %struct.prov_siv_ctx_st, ptr %35, i32 0, i32 2
  %37 = load i64, ptr %36, align 8, !tbaa !37
  %38 = icmp ne i64 %34, %37
  br i1 %38, label %39, label %40

39:                                               ; preds = %33
  call void @ERR_new()
  call void @ERR_set_debug(ptr noundef @.str, i32 noundef 90, ptr noundef @__func__.siv_init)
  call void (i32, i32, ptr, ...) @ERR_set_error(i32 noundef 57, i32 noundef 105, ptr noundef null)
  store i32 0, ptr %8, align 4
  store i32 1, ptr %17, align 4
  br label %59

40:                                               ; preds = %33
  %41 = load ptr, ptr %16, align 8, !tbaa !7
  %42 = getelementptr inbounds nuw %struct.prov_siv_ctx_st, ptr %41, i32 0, i32 7
  %43 = load ptr, ptr %42, align 8, !tbaa !9
  %44 = getelementptr inbounds nuw %struct.prov_cipher_hw_aes_siv_st, ptr %43, i32 0, i32 0
  %45 = load ptr, ptr %44, align 8, !tbaa !44
  %46 = load ptr, ptr %16, align 8, !tbaa !7
  %47 = load ptr, ptr %10, align 8, !tbaa !23
  %48 = load ptr, ptr %16, align 8, !tbaa !7
  %49 = getelementptr inbounds nuw %struct.prov_siv_ctx_st, ptr %48, i32 0, i32 2
  %50 = load i64, ptr %49, align 8, !tbaa !37
  %51 = call i32 %45(ptr noundef %46, ptr noundef %47, i64 noundef %50)
  %52 = icmp ne i32 %51, 0
  br i1 %52, label %54, label %53

53:                                               ; preds = %40
  store i32 0, ptr %8, align 4
  store i32 1, ptr %17, align 4
  br label %59

54:                                               ; preds = %40
  br label %55

55:                                               ; preds = %54, %22
  %56 = load ptr, ptr %16, align 8, !tbaa !7
  %57 = load ptr, ptr %14, align 8, !tbaa !26
  %58 = call i32 @aes_siv_set_ctx_params(ptr noundef %56, ptr noundef %57)
  store i32 %58, ptr %8, align 4
  store i32 1, ptr %17, align 4
  br label %59

59:                                               ; preds = %55, %53, %39, %21
  call void @llvm.lifetime.end.p0(i64 8, ptr %16) #4
  %60 = load i32, ptr %8, align 4
  ret i32 %60
}

; Function Attrs: nounwind uwtable
define internal i32 @siv_einit(ptr noundef %0, ptr noundef %1, i64 noundef %2, ptr noundef %3, i64 noundef %4, ptr noundef %5) #0 {
  %7 = alloca ptr, align 8
  %8 = alloca ptr, align 8
  %9 = alloca i64, align 8
  %10 = alloca ptr, align 8
  %11 = alloca i64, align 8
  %12 = alloca ptr, align 8
  store ptr %0, ptr %7, align 8, !tbaa !3
  store ptr %1, ptr %8, align 8, !tbaa !23
  store i64 %2, ptr %9, align 8, !tbaa !25
  store ptr %3, ptr %10, align 8, !tbaa !23
  store i64 %4, ptr %11, align 8, !tbaa !25
  store ptr %5, ptr %12, align 8, !tbaa !26
  %13 = load ptr, ptr %7, align 8, !tbaa !3
  %14 = load ptr, ptr %8, align 8, !tbaa !23
  %15 = load i64, ptr %9, align 8, !tbaa !25
  %16 = load ptr, ptr %10, align 8, !tbaa !23
  %17 = load i64, ptr %11, align 8, !tbaa !25
  %18 = load ptr, ptr %12, align 8, !tbaa !26
  %19 = call i32 @siv_init(ptr noundef %13, ptr noundef %14, i64 noundef %15, ptr noundef %16, i64 noundef %17, ptr noundef %18, i32 noundef 1)
  ret i32 %19
}